(lp1
S'acantharia_protist_big_center'
p2
aS'acantharia_protist_halo'
p3
aS'acantharia_protist'
p4
aS'amphipods'
p5
aS'appendicularian_fritillaridae'
p6
aS'appendicularian_s_shape'
p7
aS'appendicularian_slight_curve'
p8
aS'appendicularian_straight'
p9
aS'artifacts_edge'
p10
aS'artifacts'
p11
aS'chaetognath_non_sagitta'
p12
aS'chaetognath_other'
p13
aS'chaetognath_sagitta'
p14
aS'chordate_type1'
p15
aS'copepod_calanoid_eggs'
p16
aS'copepod_calanoid_eucalanus'
p17
aS'copepod_calanoid_flatheads'
p18
aS'copepod_calanoid_frillyAntennae'
p19
aS'copepod_calanoid_large_side_antennatucked'
p20
aS'copepod_calanoid_large'
p21
aS'copepod_calanoid_octomoms'
p22
aS'copepod_calanoid_small_longantennae'
p23
aS'copepod_calanoid'
p24
aS'copepod_cyclopoid_copilia'
p25
aS'copepod_cyclopoid_oithona_eggs'
p26
aS'copepod_cyclopoid_oithona'
p27
aS'copepod_other'
p28
aS'crustacean_other'
p29
aS'ctenophore_cestid'
p30
aS'ctenophore_cydippid_no_tentacles'
p31
aS'ctenophore_cydippid_tentacles'
p32
aS'ctenophore_lobate'
p33
aS'decapods'
p34
aS'detritus_blob'
p35
aS'detritus_filamentous'
p36
aS'detritus_other'
p37
aS'diatom_chain_string'
p38
aS'diatom_chain_tube'
p39
aS'echinoderm_larva_pluteus_brittlestar'
p40
aS'echinoderm_larva_pluteus_early'
p41
aS'echinoderm_larva_pluteus_typeC'
p42
aS'echinoderm_larva_pluteus_urchin'
p43
aS'echinoderm_larva_seastar_bipinnaria'
p44
aS'echinoderm_larva_seastar_brachiolaria'
p45
aS'echinoderm_seacucumber_auricularia_larva'
p46
aS'echinopluteus'
p47
aS'ephyra'
p48
aS'euphausiids_young'
p49
aS'euphausiids'
p50
aS'fecal_pellet'
p51
aS'fish_larvae_deep_body'
p52
aS'fish_larvae_leptocephali'
p53
aS'fish_larvae_medium_body'
p54
aS'fish_larvae_myctophids'
p55
aS'fish_larvae_thin_body'
p56
aS'fish_larvae_very_thin_body'
p57
aS'heteropod'
p58
aS'hydromedusae_aglaura'
p59
aS'hydromedusae_bell_and_tentacles'
p60
aS'hydromedusae_h15'
p61
aS'hydromedusae_haliscera_small_sideview'
p62
aS'hydromedusae_haliscera'
p63
aS'hydromedusae_liriope'
p64
aS'hydromedusae_narco_dark'
p65
aS'hydromedusae_narco_young'
p66
aS'hydromedusae_narcomedusae'
p67
aS'hydromedusae_other'
p68
aS'hydromedusae_partial_dark'
p69
aS'hydromedusae_shapeA_sideview_small'
p70
aS'hydromedusae_shapeA'
p71
aS'hydromedusae_shapeB'
p72
aS'hydromedusae_sideview_big'
p73
aS'hydromedusae_solmaris'
p74
aS'hydromedusae_solmundella'
p75
aS'hydromedusae_typeD_bell_and_tentacles'
p76
aS'hydromedusae_typeD'
p77
aS'hydromedusae_typeE'
p78
aS'hydromedusae_typeF'
p79
aS'invertebrate_larvae_other_A'
p80
aS'invertebrate_larvae_other_B'
p81
aS'jellies_tentacles'
p82
aS'polychaete'
p83
aS'protist_dark_center'
p84
aS'protist_fuzzy_olive'
p85
aS'protist_noctiluca'
p86
aS'protist_other'
p87
aS'protist_star'
p88
aS'pteropod_butterfly'
p89
aS'pteropod_theco_dev_seq'
p90
aS'pteropod_triangle'
p91
aS'radiolarian_chain'
p92
aS'radiolarian_colony'
p93
aS'shrimp_caridean'
p94
aS'shrimp_sergestidae'
p95
aS'shrimp_zoea'
p96
aS'shrimp-like_other'
p97
aS'siphonophore_calycophoran_abylidae'
p98
aS'siphonophore_calycophoran_rocketship_adult'
p99
aS'siphonophore_calycophoran_rocketship_young'
p100
aS'siphonophore_calycophoran_sphaeronectes_stem'
p101
aS'siphonophore_calycophoran_sphaeronectes_young'
p102
aS'siphonophore_calycophoran_sphaeronectes'
p103
aS'siphonophore_other_parts'
p104
aS'siphonophore_partial'
p105
aS'siphonophore_physonect_young'
p106
aS'siphonophore_physonect'
p107
aS'stomatopod'
p108
aS'tornaria_acorn_worm_larvae'
p109
aS'trichodesmium_bowtie'
p110
aS'trichodesmium_multiple'
p111
aS'trichodesmium_puff'
p112
aS'trichodesmium_tuft'
p113
aS'trochophore_larvae'
p114
aS'tunicate_doliolid_nurse'
p115
aS'tunicate_doliolid'
p116
aS'tunicate_partial'
p117
aS'tunicate_salp_chains'
p118
aS'tunicate_salp'
p119
aS'unknown_blobs_and_smudges'
p120
aS'unknown_sticks'
p121
aS'unknown_unclassified'
p122
a.